; Function Attrs: mustprogress uwtable
define void @_ZN32pxrInternal_v0_24__pxrReserved__9GfFrustum32SetPositionAndRotationFromMatrixERKNS_10GfMatrix4dE(ptr nocapture noundef nonnull align 8 dereferenceable(128) %0, ptr nocapture noundef nonnull readonly align 8 dereferenceable(128) %1) local_unnamed_addr #0 align 2 personality ptr @__gxx_personality_v0 {
  %3 = alloca %"class.pxrInternal_v0_24__pxrReserved__::GfMatrix4d", align 8
  %4 = alloca %"class.pxrInternal_v0_24__pxrReserved__::GfVec4d", align 8
  %5 = alloca %"class.pxrInternal_v0_24__pxrReserved__::GfMatrix4d", align 8
  %6 = alloca %"class.pxrInternal_v0_24__pxrReserved__::GfRotation", align 8
  call void @llvm.memcpy.p0.p0.i64(ptr noundef nonnull align 8 dereferenceable(128) %3, ptr noundef nonnull align 8 dereferenceable(128) %1, i64 128, i1 false)
  %7 = call noundef double @_ZNK32pxrInternal_v0_24__pxrReserved__10GfMatrix4d13GetHandednessEv(ptr noundef nonnull align 8 dereferenceable(128) %3)
  %8 = fcmp oeq double %7, 1.000000e+00
  br i1 %8, label %23, label %9

9:                                                ; preds = %2
  %10 = load atomic i8, ptr @_ZGVZN32pxrInternal_v0_24__pxrReserved__9GfFrustum32SetPositionAndRotationFromMatrixERKNS_10GfMatrix4dEE4flip acquire, align 8
  %11 = icmp eq i8 %10, 0
  br i1 %11, label %12, label %19, !prof !4

12:                                               ; preds = %9
  %13 = call i32 @__cxa_guard_acquire(ptr nonnull @_ZGVZN32pxrInternal_v0_24__pxrReserved__9GfFrustum32SetPositionAndRotationFromMatrixERKNS_10GfMatrix4dEE4flip) #24
  %.not = icmp eq i32 %13, 0
  br i1 %.not, label %19, label %14

14:                                               ; preds = %12
  store double -1.000000e+00, ptr %4, align 8
  %15 = getelementptr inbounds i8, ptr %4, i64 8
  store double 1.000000e+00, ptr %15, align 8
  %16 = getelementptr inbounds i8, ptr %4, i64 16
  store double 1.000000e+00, ptr %16, align 8
  %17 = getelementptr inbounds i8, ptr %4, i64 24
  store double 1.000000e+00, ptr %17, align 8
  %18 = invoke noundef nonnull align 8 dereferenceable(128) ptr @_ZN32pxrInternal_v0_24__pxrReserved__10GfMatrix4d11SetDiagonalERKNS_7GfVec4dE(ptr noundef nonnull align 8 dereferenceable(128) @_ZZN32pxrInternal_v0_24__pxrReserved__9GfFrustum32SetPositionAndRotationFromMatrixERKNS_10GfMatrix4dEE4flip, ptr noundef nonnull align 8 dereferenceable(32) %4)
          to label %_ZN32pxrInternal_v0_24__pxrReserved__10GfMatrix4dC2ERKNS_7GfVec4dE.exit unwind label %21

_ZN32pxrInternal_v0_24__pxrReserved__10GfMatrix4dC2ERKNS_7GfVec4dE.exit: ; preds = %14
  call void @__cxa_guard_release(ptr nonnull @_ZGVZN32pxrInternal_v0_24__pxrReserved__9GfFrustum32SetPositionAndRotationFromMatrixERKNS_10GfMatrix4dEE4flip) #24
  br label %19

19:                                               ; preds = %_ZN32pxrInternal_v0_24__pxrReserved__10GfMatrix4dC2ERKNS_7GfVec4dE.exit, %12, %9
  call void @llvm.memcpy.p0.p0.i64(ptr noundef nonnull align 8 dereferenceable(128) %5, ptr noundef nonnull align 8 dereferenceable(128) @_ZZN32pxrInternal_v0_24__pxrReserved__9GfFrustum32SetPositionAndRotationFromMatrixERKNS_10GfMatrix4dEE4flip, i64 128, i1 false)
  %20 = call noundef nonnull align 8 dereferenceable(128) ptr @_ZN32pxrInternal_v0_24__pxrReserved__10GfMatrix4dmLERKS0_(ptr noundef nonnull align 8 dereferenceable(128) %5, ptr noundef nonnull align 8 dereferenceable(128) %3)
  call void @llvm.memcpy.p0.p0.i64(ptr noundef nonnull align 8 dereferenceable(128) %3, ptr noundef nonnull align 8 dereferenceable(128) %5, i64 128, i1 false)
  br label %23

21:                                               ; preds = %14
  %22 = landingpad { ptr, i32 }
          cleanup
  call void @__cxa_guard_abort(ptr nonnull @_ZGVZN32pxrInternal_v0_24__pxrReserved__9GfFrustum32SetPositionAndRotationFromMatrixERKNS_10GfMatrix4dEE4flip) #24
  resume { ptr, i32 } %22

23:                                               ; preds = %19, %2
  %24 = call noundef zeroext i1 @_ZN32pxrInternal_v0_24__pxrReserved__10GfMatrix4d14OrthonormalizeEb(ptr noundef nonnull align 8 dereferenceable(128) %3, i1 noundef zeroext true)
  call void @_ZNK32pxrInternal_v0_24__pxrReserved__10GfMatrix4d15ExtractRotationEv(ptr dead_on_unwind nonnull writable sret(%"class.pxrInternal_v0_24__pxrReserved__::GfRotation") align 8 %6, ptr noundef nonnull align 8 dereferenceable(128) %3)
  %25 = getelementptr inbounds nuw i8, ptr %0, i64 24
  call void @llvm.memcpy.p0.p0.i64(ptr noundef nonnull align 8 dereferenceable(32) %25, ptr noundef nonnull align 8 dereferenceable(32) %6, i64 32, i1 false)
  %26 = getelementptr inbounds nuw i8, ptr %0, i64 120
  %27 = atomicrmw xchg ptr %26, i64 0 monotonic, align 8
  %28 = icmp eq i64 %27, 0
  br i1 %28, label %_ZN32pxrInternal_v0_24__pxrReserved__9GfFrustum11SetRotationERKNS_10GfRotationE.exit, label %29

29:                                               ; preds = %23
  %.0.i.i.i = inttoptr i64 %27 to ptr
  call void @_ZdlPvm(ptr noundef nonnull %.0.i.i.i, i64 noundef 192) #25
  br label %_ZN32pxrInternal_v0_24__pxrReserved__9GfFrustum11SetRotationERKNS_10GfRotationE.exit

_ZN32pxrInternal_v0_24__pxrReserved__9GfFrustum11SetRotationERKNS_10GfRotationE.exit: ; preds = %23, %29
  %30 = getelementptr inbounds i8, ptr %3, i64 96
  %31 = load double, ptr %30, align 8, !noalias !5
  %32 = getelementptr inbounds i8, ptr %3, i64 104
  %33 = load double, ptr %32, align 8, !noalias !5
  %34 = getelementptr inbounds i8, ptr %3, i64 112
  %35 = load double, ptr %34, align 8, !noalias !5
  store double %31, ptr %0, align 8
  %.sroa.2.0..sroa_idx = getelementptr inbounds i8, ptr %0, i64 8
  store double %33, ptr %.sroa.2.0..sroa_idx, align 8
  %.sroa.3.0..sroa_idx = getelementptr inbounds i8, ptr %0, i64 16
  store double %35, ptr %.sroa.3.0..sroa_idx, align 8
  %36 = atomicrmw xchg ptr %26, i64 0 monotonic, align 8
  %37 = icmp eq i64 %36, 0
  br i1 %37, label %_ZN32pxrInternal_v0_24__pxrReserved__9GfFrustum11SetPositionERKNS_7GfVec3dE.exit, label %38

38:                                               ; preds = %_ZN32pxrInternal_v0_24__pxrReserved__9GfFrustum11SetRotationERKNS_10GfRotationE.exit
  %.0.i.i.i3 = inttoptr i64 %36 to ptr
  call void @_ZdlPvm(ptr noundef nonnull %.0.i.i.i3, i64 noundef 192) #25
  br label %_ZN32pxrInternal_v0_24__pxrReserved__9GfFrustum11SetPositionERKNS_7GfVec3dE.exit

_ZN32pxrInternal_v0_24__pxrReserved__9GfFrustum11SetPositionERKNS_7GfVec3dE.exit: ; preds = %_ZN32pxrInternal_v0_24__pxrReserved__9GfFrustum11SetRotationERKNS_10GfRotationE.exit, %38
  ret void
}